target datalayout = "e-m:e-p270:32:32-p271:32:32-p272:64:64-i64:64-i128:128-f80:128-n8:16:32:64-S128"
target triple = "x86_64-pc-linux-gnu"

%struct.expert_field = type { i32, i32 }
%struct._proto_node = type { ptr, ptr, ptr, ptr, ptr, ptr, ptr }
%struct.field_info = type { ptr, i32, i32, i32, i32, i32, i32, ptr, ptr, ptr, i32, i32 }

@hf_nas_eps_emm_odd_even = internal global i32 0, align 4
@hf_nas_eps_emm_type_of_id = internal global i32 0, align 4
@hf_nas_eps_emm_mme_grp_id = internal global i32 0, align 4
@hf_nas_eps_emm_imei = internal global i32 0, align 4
@hf_nas_eps_emm_mme_code = internal global i32 0, align 4
@hf_nas_eps_emm_m_tmsi = internal global i32 0, align 4
@ei_nas_eps_unknown_identity = internal global %struct.expert_field zeroinitializer, align 4
@hf_3gpp_tmsi = external global i32, align 4

; Function Attrs: inlinehint nounwind null_pointer_is_valid sspstrong uwtable
define internal void @proto_item_set_hidden(ptr noundef %0) #4 {
  %2 = alloca ptr, align 8
  store ptr %0, ptr %2, align 8
  %3 = load ptr, ptr %2, align 8
  %4 = icmp ne ptr %3, null
  br i1 %4, label %5, label %24

5:                                                ; preds = %1
  br label %6

6:                                                ; preds = %5
  %7 = load ptr, ptr %2, align 8
  %8 = getelementptr inbounds nuw %struct._proto_node, ptr %7, i32 0, i32 5
  %9 = load ptr, ptr %8, align 8
  %10 = icmp ne ptr %9, null
  br i1 %10, label %11, label %22

11:                                               ; preds = %6
  %12 = load ptr, ptr %2, align 8
  %13 = getelementptr inbounds nuw %struct._proto_node, ptr %12, i32 0, i32 5
  %14 = load ptr, ptr %13, align 8
  %15 = getelementptr inbounds nuw %struct.field_info, ptr %14, i32 0, i32 6
  %16 = load i32, ptr %15, align 4
  %17 = or i32 %16, 1
  %18 = load ptr, ptr %2, align 8
  %19 = getelementptr inbounds nuw %struct._proto_node, ptr %18, i32 0, i32 5
  %20 = load ptr, ptr %19, align 8
  %21 = getelementptr inbounds nuw %struct.field_info, ptr %20, i32 0, i32 6
  store i32 %17, ptr %21, align 4
  br label %22

22:                                               ; preds = %11, %6
  br label %23

23:                                               ; preds = %22
  br label %24

24:                                               ; preds = %23, %1
  ret void
}

; Function Attrs: null_pointer_is_valid sspstrong uwtable
define internal zeroext i16 @de_emm_eps_mid(ptr noundef %0, ptr noundef %1, ptr noundef %2, i32 noundef %3, i32 noundef %4, ptr noundef %5, i32 noundef %6) #1 {
  %8 = alloca ptr, align 8
  %9 = alloca ptr, align 8
  %10 = alloca ptr, align 8
  %11 = alloca i32, align 4
  %12 = alloca i32, align 4
  %13 = alloca ptr, align 8
  %14 = alloca i32, align 4
  %15 = alloca i32, align 4
  %16 = alloca i8, align 1
  %17 = alloca ptr, align 8
  store ptr %0, ptr %8, align 8
  store ptr %1, ptr %9, align 8
  store ptr %2, ptr %10, align 8
  store i32 %3, ptr %11, align 4
  store i32 %4, ptr %12, align 4
  store ptr %5, ptr %13, align 8
  store i32 %6, ptr %14, align 4
  call void @llvm.lifetime.start.p0(i64 4, ptr %15) #10
  call void @llvm.lifetime.start.p0(i64 1, ptr %16) #10
  call void @llvm.lifetime.start.p0(i64 8, ptr %17) #10
  %18 = load i32, ptr %11, align 4
  store i32 %18, ptr %15, align 4
  %19 = load ptr, ptr %8, align 8
  %20 = load i32, ptr %11, align 4
  %21 = call zeroext i8 @tvb_get_uint8(ptr noundef %19, i32 noundef %20)
  store i8 %21, ptr %16, align 1
  %22 = load ptr, ptr %9, align 8
  %23 = load i32, ptr @hf_nas_eps_emm_odd_even, align 4
  %24 = load ptr, ptr %8, align 8
  %25 = load i32, ptr %15, align 4
  %26 = call ptr @proto_tree_add_item(ptr noundef %22, i32 noundef %23, ptr noundef %24, i32 noundef %25, i32 noundef 1, i32 noundef 0)
  %27 = load ptr, ptr %9, align 8
  %28 = load i32, ptr @hf_nas_eps_emm_type_of_id, align 4
  %29 = load ptr, ptr %8, align 8
  %30 = load i32, ptr %15, align 4
  %31 = call ptr @proto_tree_add_item(ptr noundef %27, i32 noundef %28, ptr noundef %29, i32 noundef %30, i32 noundef 1, i32 noundef 0)
  %32 = load i8, ptr %16, align 1
  %33 = zext i8 %32 to i32
  %34 = and i32 %33, 7
  switch i32 %34, label %82 [
    i32 1, label %35
    i32 3, label %42
    i32 6, label %49
  ]

35:                                               ; preds = %7
  %36 = load ptr, ptr %8, align 8
  %37 = load ptr, ptr %10, align 8
  %38 = load ptr, ptr %9, align 8
  %39 = load i32, ptr %15, align 4
  %40 = load i32, ptr %12, align 4
  %41 = call ptr @dissect_e212_imsi(ptr noundef %36, ptr noundef %37, ptr noundef %38, i32 noundef %39, i32 noundef %40, i1 noundef zeroext true)
  br label %90

42:                                               ; preds = %7
  %43 = load ptr, ptr %9, align 8
  %44 = load i32, ptr @hf_nas_eps_emm_imei, align 4
  %45 = load ptr, ptr %8, align 8
  %46 = load i32, ptr %15, align 4
  %47 = load i32, ptr %12, align 4
  %48 = call ptr @proto_tree_add_item(ptr noundef %43, i32 noundef %44, ptr noundef %45, i32 noundef %46, i32 noundef %47, i32 noundef -2147352508)
  br label %90

49:                                               ; preds = %7
  %50 = load i32, ptr %15, align 4
  %51 = add i32 %50, 1
  store i32 %51, ptr %15, align 4
  %52 = load ptr, ptr %8, align 8
  %53 = load ptr, ptr %10, align 8
  %54 = load ptr, ptr %9, align 8
  %55 = load i32, ptr %15, align 4
  %56 = call i32 @dissect_e212_mcc_mnc(ptr noundef %52, ptr noundef %53, ptr noundef %54, i32 noundef %55, i32 noundef 9, i1 noundef zeroext true)
  store i32 %56, ptr %15, align 4
  %57 = load ptr, ptr %9, align 8
  %58 = load i32, ptr @hf_nas_eps_emm_mme_grp_id, align 4
  %59 = load ptr, ptr %8, align 8
  %60 = load i32, ptr %15, align 4
  %61 = call ptr @proto_tree_add_item(ptr noundef %57, i32 noundef %58, ptr noundef %59, i32 noundef %60, i32 noundef 2, i32 noundef 0)
  %62 = load i32, ptr %15, align 4
  %63 = add i32 %62, 2
  store i32 %63, ptr %15, align 4
  %64 = load ptr, ptr %9, align 8
  %65 = load i32, ptr @hf_nas_eps_emm_mme_code, align 4
  %66 = load ptr, ptr %8, align 8
  %67 = load i32, ptr %15, align 4
  %68 = call ptr @proto_tree_add_item(ptr noundef %64, i32 noundef %65, ptr noundef %66, i32 noundef %67, i32 noundef 1, i32 noundef 0)
  %69 = load i32, ptr %15, align 4
  %70 = add i32 %69, 1
  store i32 %70, ptr %15, align 4
  %71 = load ptr, ptr %9, align 8
  %72 = load i32, ptr @hf_nas_eps_emm_m_tmsi, align 4
  %73 = load ptr, ptr %8, align 8
  %74 = load i32, ptr %15, align 4
  %75 = call ptr @proto_tree_add_item(ptr noundef %71, i32 noundef %72, ptr noundef %73, i32 noundef %74, i32 noundef 4, i32 noundef 0)
  %76 = load ptr, ptr %9, align 8
  %77 = load i32, ptr @hf_3gpp_tmsi, align 4
  %78 = load ptr, ptr %8, align 8
  %79 = load i32, ptr %15, align 4
  %80 = call ptr @proto_tree_add_item(ptr noundef %76, i32 noundef %77, ptr noundef %78, i32 noundef %79, i32 noundef 4, i32 noundef 0)
  store ptr %80, ptr %17, align 8
  %81 = load ptr, ptr %17, align 8
  call void @proto_item_set_hidden(ptr noundef %81)
  br label %90

82:                                               ; preds = %7
  %83 = load ptr, ptr %9, align 8
  %84 = load ptr, ptr %10, align 8
  %85 = load ptr, ptr %8, align 8
  %86 = load i32, ptr %15, align 4
  %87 = load i32, ptr %12, align 4
  %88 = sub i32 %87, 1
  %89 = call ptr @proto_tree_add_expert(ptr noundef %83, ptr noundef %84, ptr noundef @ei_nas_eps_unknown_identity, ptr noundef %85, i32 noundef %86, i32 noundef %88)
  br label %90

90:                                               ; preds = %82, %49, %42, %35
  %91 = load i32, ptr %12, align 4
  %92 = trunc i32 %91 to i16
  call void @llvm.lifetime.end.p0(i64 8, ptr %17) #10
  call void @llvm.lifetime.end.p0(i64 1, ptr %16) #10
  call void @llvm.lifetime.end.p0(i64 4, ptr %15) #10
  ret i16 %92
}