; Function Attrs: null_pointer_is_valid sspstrong uwtable
define internal noundef zeroext i16 @de_emm_eps_mid(ptr noundef %0, ptr noundef %1, ptr noundef %2, i32 noundef %3, i32 noundef %4, ptr readnone captures(none) %5, i32 %6) #1 {
  %8 = tail call zeroext i8 @tvb_get_uint8(ptr noundef %0, i32 noundef %3)
  %9 = load i32, ptr @hf_nas_eps_emm_odd_even, align 4
  %10 = tail call ptr @proto_tree_add_item(ptr noundef %1, i32 noundef %9, ptr noundef %0, i32 noundef %3, i32 noundef 1, i32 noundef 0)
  %11 = load i32, ptr @hf_nas_eps_emm_type_of_id, align 4
  %12 = tail call ptr @proto_tree_add_item(ptr noundef %1, i32 noundef %11, ptr noundef %0, i32 noundef %3, i32 noundef 1, i32 noundef 0)
  %13 = and i8 %8, 7
  switch i8 %13, label %39 [
    i8 1, label %14
    i8 3, label %16
    i8 6, label %19
  ]

14:                                               ; preds = %7
  %15 = tail call ptr @dissect_e212_imsi(ptr noundef %0, ptr noundef %2, ptr noundef %1, i32 noundef %3, i32 noundef %4, i1 noundef zeroext true)
  br label %proto_item_set_hidden.exit

16:                                               ; preds = %7
  %17 = load i32, ptr @hf_nas_eps_emm_imei, align 4
  %18 = tail call ptr @proto_tree_add_item(ptr noundef %1, i32 noundef %17, ptr noundef %0, i32 noundef %3, i32 noundef %4, i32 noundef -2147352508)
  br label %proto_item_set_hidden.exit

19:                                               ; preds = %7
  %20 = add i32 %3, 1
  %21 = tail call i32 @dissect_e212_mcc_mnc(ptr noundef %0, ptr noundef %2, ptr noundef %1, i32 noundef %20, i32 noundef 9, i1 noundef zeroext true)
  %22 = load i32, ptr @hf_nas_eps_emm_mme_grp_id, align 4
  %23 = tail call ptr @proto_tree_add_item(ptr noundef %1, i32 noundef %22, ptr noundef %0, i32 noundef %21, i32 noundef 2, i32 noundef 0)
  %24 = add i32 %21, 2
  %25 = load i32, ptr @hf_nas_eps_emm_mme_code, align 4
  %26 = tail call ptr @proto_tree_add_item(ptr noundef %1, i32 noundef %25, ptr noundef %0, i32 noundef %24, i32 noundef 1, i32 noundef 0)
  %27 = add i32 %21, 3
  %28 = load i32, ptr @hf_nas_eps_emm_m_tmsi, align 4
  %29 = tail call ptr @proto_tree_add_item(ptr noundef %1, i32 noundef %28, ptr noundef %0, i32 noundef %27, i32 noundef 4, i32 noundef 0)
  %30 = load i32, ptr @hf_3gpp_tmsi, align 4
  %31 = tail call ptr @proto_tree_add_item(ptr noundef %1, i32 noundef %30, ptr noundef %0, i32 noundef %27, i32 noundef 4, i32 noundef 0)
  %.not.i = icmp eq ptr %31, null
  br i1 %.not.i, label %proto_item_set_hidden.exit, label %32

32:                                               ; preds = %19
  %33 = getelementptr inbounds nuw i8, ptr %31, i64 40
  %34 = load ptr, ptr %33, align 8
  %.not5.i = icmp eq ptr %34, null
  br i1 %.not5.i, label %proto_item_set_hidden.exit, label %35

35:                                               ; preds = %32
  %36 = getelementptr inbounds nuw i8, ptr %34, i64 28
  %37 = load i32, ptr %36, align 4
  %38 = or i32 %37, 1
  store i32 %38, ptr %36, align 4
  br label %proto_item_set_hidden.exit

39:                                               ; preds = %7
  %40 = add i32 %4, -1
  %41 = tail call ptr @proto_tree_add_expert(ptr noundef %1, ptr noundef %2, ptr noundef nonnull @ei_nas_eps_unknown_identity, ptr noundef %0, i32 noundef %3, i32 noundef %40)
  br label %proto_item_set_hidden.exit

proto_item_set_hidden.exit:                       ; preds = %35, %32, %19, %39, %16, %14
  %42 = trunc i32 %4 to i16
  ret i16 %42
}